target datalayout = "e-m:e-p270:32:32-p271:32:32-p272:64:64-i64:64-i128:128-f80:128-n8:16:32:64-S128"
target triple = "x86_64-pc-linux-gnu"

%struct.app_verify_arg = type { ptr, i32 }

@.str.262 = private unnamed_addr constant [40 x i8] c"In app_verify_callback, allowing cert. \00", align 1
@.str.263 = private unnamed_addr constant [12 x i8] c"Arg is: %s\0A\00", align 1
@.str.264 = private unnamed_addr constant [59 x i8] c"Finished printing do we have a context? 0x%p a cert? 0x%p\0A\00", align 1
@.str.265 = private unnamed_addr constant [18 x i8] c"cert depth=%d %s\0A\00", align 1

; Function Attrs: nounwind uwtable
define internal i32 @app_verify_callback(ptr noundef %0, ptr noundef %1) #0 {
  %3 = alloca i32, align 4
  %4 = alloca ptr, align 8
  %5 = alloca ptr, align 8
  %6 = alloca i32, align 4
  %7 = alloca ptr, align 8
  %8 = alloca ptr, align 8
  %9 = alloca [256 x i8], align 16
  %10 = alloca ptr, align 8
  %11 = alloca i32, align 4
  store ptr %0, ptr %4, align 8, !tbaa !51
  store ptr %1, ptr %5, align 8, !tbaa !53
  call void @llvm.lifetime.start.p0(i64 4, ptr %6) #10
  store i32 1, ptr %6, align 4, !tbaa !4
  call void @llvm.lifetime.start.p0(i64 8, ptr %7) #10
  %12 = load ptr, ptr %5, align 8, !tbaa !53
  store ptr %12, ptr %7, align 8, !tbaa !54
  %13 = load ptr, ptr %7, align 8, !tbaa !54
  %14 = getelementptr inbounds nuw %struct.app_verify_arg, ptr %13, i32 0, i32 1
  %15 = load i32, ptr %14, align 8, !tbaa !38
  %16 = icmp ne i32 %15, 0
  br i1 %16, label %17, label %44

17:                                               ; preds = %2
  call void @llvm.lifetime.start.p0(i64 8, ptr %8) #10
  store ptr null, ptr %8, align 8, !tbaa !11
  call void @llvm.lifetime.start.p0(i64 256, ptr %9) #10
  call void @llvm.lifetime.start.p0(i64 8, ptr %10) #10
  %18 = load ptr, ptr %4, align 8, !tbaa !51
  %19 = call ptr @X509_STORE_CTX_get0_cert(ptr noundef %18)
  store ptr %19, ptr %10, align 8, !tbaa !56
  %20 = call i32 (ptr, ...) @printf(ptr noundef @.str.262)
  %21 = load ptr, ptr %7, align 8, !tbaa !54
  %22 = getelementptr inbounds nuw %struct.app_verify_arg, ptr %21, i32 0, i32 0
  %23 = load ptr, ptr %22, align 8, !tbaa !58
  %24 = call i32 (ptr, ...) @printf(ptr noundef @.str.263, ptr noundef %23)
  %25 = load ptr, ptr %4, align 8, !tbaa !51
  %26 = load ptr, ptr %10, align 8, !tbaa !56
  %27 = call i32 (ptr, ...) @printf(ptr noundef @.str.264, ptr noundef %25, ptr noundef %26)
  %28 = load ptr, ptr %10, align 8, !tbaa !56
  %29 = icmp ne ptr %28, null
  br i1 %29, label %30, label %35

30:                                               ; preds = %17
  %31 = load ptr, ptr %10, align 8, !tbaa !56
  %32 = call ptr @X509_get_subject_name(ptr noundef %31)
  %33 = getelementptr inbounds [256 x i8], ptr %9, i64 0, i64 0
  %34 = call ptr @X509_NAME_oneline(ptr noundef %32, ptr noundef %33, i32 noundef 256)
  store ptr %34, ptr %8, align 8, !tbaa !11
  br label %35

35:                                               ; preds = %30, %17
  %36 = load ptr, ptr %8, align 8, !tbaa !11
  %37 = icmp ne ptr %36, null
  br i1 %37, label %38, label %43

38:                                               ; preds = %35
  %39 = load ptr, ptr %4, align 8, !tbaa !51
  %40 = call i32 @X509_STORE_CTX_get_error_depth(ptr noundef %39)
  %41 = getelementptr inbounds [256 x i8], ptr %9, i64 0, i64 0
  %42 = call i32 (ptr, ...) @printf(ptr noundef @.str.265, i32 noundef %40, ptr noundef %41)
  br label %43

43:                                               ; preds = %38, %35
  store i32 1, ptr %3, align 4
  store i32 1, ptr %11, align 4
  call void @llvm.lifetime.end.p0(i64 8, ptr %10) #10
  call void @llvm.lifetime.end.p0(i64 256, ptr %9) #10
  call void @llvm.lifetime.end.p0(i64 8, ptr %8) #10
  br label %48

44:                                               ; preds = %2
  %45 = load ptr, ptr %4, align 8, !tbaa !51
  %46 = call i32 @X509_verify_cert(ptr noundef %45)
  store i32 %46, ptr %6, align 4, !tbaa !4
  %47 = load i32, ptr %6, align 4, !tbaa !4
  store i32 %47, ptr %3, align 4
  store i32 1, ptr %11, align 4
  br label %48

48:                                               ; preds = %44, %43
  call void @llvm.lifetime.end.p0(i64 8, ptr %7) #10
  call void @llvm.lifetime.end.p0(i64 4, ptr %6) #10
  %49 = load i32, ptr %3, align 4
  ret i32 %49
}