; Function Attrs: nounwind uwtable
define internal i32 @app_verify_callback(ptr noundef %0, ptr noundef readonly captures(none) %1) #7 {
  %3 = alloca [256 x i8], align 16
  %4 = getelementptr inbounds nuw i8, ptr %1, i64 8
  %5 = load i32, ptr %4, align 8, !tbaa !24
  %.not = icmp eq i32 %5, 0
  br i1 %.not, label %19, label %6

6:                                                ; preds = %2
  call void @llvm.lifetime.start.p0(i64 256, ptr nonnull %3) #23
  %7 = tail call ptr @X509_STORE_CTX_get0_cert(ptr noundef %0) #23
  %8 = tail call i32 (ptr, ...) @printf(ptr noundef nonnull dereferenceable(1) @.str.262)
  %9 = load ptr, ptr %1, align 8, !tbaa !35
  %10 = tail call i32 (ptr, ...) @printf(ptr noundef nonnull dereferenceable(1) @.str.263, ptr noundef %9)
  %11 = tail call i32 (ptr, ...) @printf(ptr noundef nonnull dereferenceable(1) @.str.264, ptr noundef %0, ptr noundef %7)
  %.not14 = icmp eq ptr %7, null
  br i1 %.not14, label %.critedge, label %12

12:                                               ; preds = %6
  %13 = tail call ptr @X509_get_subject_name(ptr noundef nonnull %7) #23
  %14 = call ptr @X509_NAME_oneline(ptr noundef %13, ptr noundef nonnull %3, i32 noundef 256) #23
  %15 = icmp eq ptr %14, null
  br i1 %15, label %.critedge, label %16

16:                                               ; preds = %12
  %17 = call i32 @X509_STORE_CTX_get_error_depth(ptr noundef %0) #23
  %18 = call i32 (ptr, ...) @printf(ptr noundef nonnull dereferenceable(1) @.str.265, i32 noundef %17, ptr noundef nonnull %3)
  br label %.critedge

.critedge:                                        ; preds = %6, %16, %12
  call void @llvm.lifetime.end.p0(i64 256, ptr nonnull %3) #23
  br label %21

19:                                               ; preds = %2
  %20 = tail call i32 @X509_verify_cert(ptr noundef %0) #23
  br label %21

21:                                               ; preds = %19, %.critedge
  %.0 = phi i32 [ 1, %.critedge ], [ %20, %19 ]
  ret i32 %.0
}